target datalayout = "e-m:e-p270:32:32-p271:32:32-p272:64:64-i64:64-i128:128-f80:128-n8:16:32:64-S128"
target triple = "x86_64-pc-linux-gnu"

%struct.strbuf = type { i64, i64, ptr }
%struct.string_list = type { ptr, i64, i64, i8, ptr }
%struct.worktree_reflogs = type { ptr, %struct.string_list }
%struct.worktree = type { ptr, ptr, ptr, ptr, ptr, ptr, %struct.object_id, i32, i32, i32, i32, i32 }
%struct.object_id = type { [32 x i8], i32 }

@__const.collect_reflog.newref = private unnamed_addr constant %struct.strbuf { i64 0, i64 0, ptr @strbuf_slopbuf }, align 8

; Function Attrs: nounwind uwtable
define internal i32 @collect_reflog(ptr noundef %0, ptr noundef %1) #0 {
  %3 = alloca i32, align 4
  %4 = alloca ptr, align 8
  %5 = alloca ptr, align 8
  %6 = alloca ptr, align 8
  %7 = alloca ptr, align 8
  %8 = alloca %struct.strbuf, align 8
  %9 = alloca i32, align 4
  store ptr %0, ptr %4, align 8, !tbaa !11
  store ptr %1, ptr %5, align 8, !tbaa !15
  call void @llvm.lifetime.start.p0(i64 8, ptr %6) #9
  %10 = load ptr, ptr %5, align 8, !tbaa !15
  store ptr %10, ptr %6, align 8, !tbaa !83
  call void @llvm.lifetime.start.p0(i64 8, ptr %7) #9
  %11 = load ptr, ptr %6, align 8, !tbaa !83
  %12 = getelementptr inbounds nuw %struct.worktree_reflogs, ptr %11, i32 0, i32 0
  %13 = load ptr, ptr %12, align 8, !tbaa !45
  store ptr %13, ptr %7, align 8, !tbaa !40
  call void @llvm.lifetime.start.p0(i64 24, ptr %8) #9
  call void @llvm.memcpy.p0.p0.i64(ptr align 8 %8, ptr align 8 @__const.collect_reflog.newref, i64 24, i1 false)
  %14 = load ptr, ptr %7, align 8, !tbaa !40
  %15 = getelementptr inbounds nuw %struct.worktree, ptr %14, i32 0, i32 9
  %16 = load i32, ptr %15, align 4, !tbaa !42
  %17 = icmp ne i32 %16, 0
  br i1 %17, label %23, label %18

18:                                               ; preds = %2
  %19 = load ptr, ptr %4, align 8, !tbaa !11
  %20 = call i32 @parse_worktree_ref(ptr noundef %19, ptr noundef null, ptr noundef null, ptr noundef null)
  %21 = icmp eq i32 %20, 3
  br i1 %21, label %22, label %23

22:                                               ; preds = %18
  store i32 0, ptr %3, align 4
  store i32 1, ptr %9, align 4
  br label %30

23:                                               ; preds = %18, %2
  %24 = load ptr, ptr %7, align 8, !tbaa !40
  %25 = load ptr, ptr %4, align 8, !tbaa !11
  call void @strbuf_worktree_ref(ptr noundef %24, ptr noundef %8, ptr noundef %25)
  %26 = load ptr, ptr %6, align 8, !tbaa !83
  %27 = getelementptr inbounds nuw %struct.worktree_reflogs, ptr %26, i32 0, i32 1
  %28 = call ptr @strbuf_detach(ptr noundef %8, ptr noundef null)
  %29 = call ptr @string_list_append_nodup(ptr noundef %27, ptr noundef %28)
  store i32 0, ptr %3, align 4
  store i32 1, ptr %9, align 4
  br label %30

30:                                               ; preds = %23, %22
  call void @llvm.lifetime.end.p0(i64 24, ptr %8) #9
  call void @llvm.lifetime.end.p0(i64 8, ptr %7) #9
  call void @llvm.lifetime.end.p0(i64 8, ptr %6) #9
  %31 = load i32, ptr %3, align 4
  ret i32 %31
}