; Function Attrs: nounwind uwtable
define internal noundef i32 @collect_reflog(ptr noundef %0, ptr noundef %1) #0 {
  %3 = alloca %struct.strbuf, align 8
  %4 = load ptr, ptr %1, align 8, !tbaa !41
  call void @llvm.lifetime.start.p0(i64 24, ptr nonnull %3) #13
  call void @llvm.memcpy.p0.p0.i64(ptr noundef nonnull align 8 dereferenceable(24) %3, ptr noundef nonnull align 8 dereferenceable(24) @__const.collect_reflog.newref, i64 24, i1 false)
  %5 = getelementptr inbounds nuw i8, ptr %4, i64 92
  %6 = load i32, ptr %5, align 4, !tbaa !38
  %.not = icmp eq i32 %6, 0
  br i1 %.not, label %7, label %10

7:                                                ; preds = %2
  %8 = tail call i32 @parse_worktree_ref(ptr noundef %0, ptr noundef null, ptr noundef null, ptr noundef null) #13
  %9 = icmp eq i32 %8, 3
  br i1 %9, label %14, label %10

10:                                               ; preds = %7, %2
  call void @strbuf_worktree_ref(ptr noundef nonnull %4, ptr noundef nonnull %3, ptr noundef %0) #13
  %11 = getelementptr inbounds nuw i8, ptr %1, i64 8
  %12 = call ptr @strbuf_detach(ptr noundef nonnull %3, ptr noundef null) #13
  %13 = call ptr @string_list_append_nodup(ptr noundef nonnull %11, ptr noundef %12) #13
  br label %14

14:                                               ; preds = %7, %10
  call void @llvm.lifetime.end.p0(i64 24, ptr nonnull %3) #13
  ret i32 0
}